; Function Attrs: nounwind uwtable
define internal void @fn_region_leave_printf_va_fl(ptr noundef %0, i32 noundef %1, i64 noundef %2, i64 noundef %3, ptr noundef %4, ptr noundef %5, ptr noundef %6, ptr noundef %7, ptr noundef %8) #0 {
  %10 = alloca [1 x %struct.__va_list_tag], align 16
  %11 = alloca i64, align 8
  %12 = alloca i64, align 8
  %13 = alloca %struct.strbuf, align 8
  store i64 %2, ptr %11, align 8, !tbaa !9
  store i64 %3, ptr %12, align 8, !tbaa !9
  call void @llvm.lifetime.start.p0(i64 24, ptr nonnull %13) #7
  call void @llvm.memcpy.p0.p0.i64(ptr noundef nonnull align 8 dereferenceable(24) %13, ptr noundef nonnull align 8 dereferenceable(24) @__const.fn_counter.buf_payload, i64 24, i1 false)
  %.not = icmp eq ptr %5, null
  br i1 %.not, label %15, label %14

14:                                               ; preds = %9
  call void (ptr, ptr, ...) @strbuf_addf(ptr noundef nonnull %13, ptr noundef nonnull @.str.57, ptr noundef nonnull %5) #7
  br label %15

15:                                               ; preds = %14, %9
  %.not11 = icmp eq ptr %7, null
  br i1 %.not11, label %maybe_append_string_va.exit, label %16

16:                                               ; preds = %15
  %17 = load i8, ptr %7, align 1, !tbaa !4
  %.not12 = icmp eq i8 %17, 0
  br i1 %.not12, label %maybe_append_string_va.exit, label %18

18:                                               ; preds = %16
  %19 = load i64, ptr %13, align 8, !tbaa !11
  %.not.i.i = icmp eq i64 %19, 0
  br i1 %.not.i.i, label %strbuf_avail.exit.thread.i, label %strbuf_avail.exit.i

strbuf_avail.exit.i:                              ; preds = %18
  %20 = getelementptr inbounds nuw i8, ptr %13, i64 8
  %21 = load i64, ptr %20, align 8, !tbaa !15
  %.neg.i = add i64 %21, 1
  %.not.i = icmp eq i64 %19, %.neg.i
  br i1 %.not.i, label %strbuf_avail.exit.thread.i, label %22

strbuf_avail.exit.thread.i:                       ; preds = %strbuf_avail.exit.i, %18
  call void @strbuf_grow(ptr noundef nonnull %13, i64 noundef 1) #7
  %.phi.trans.insert.i = getelementptr inbounds nuw i8, ptr %13, i64 8
  %.pre.i = load i64, ptr %.phi.trans.insert.i, align 8, !tbaa !15
  %.pre7.i = add i64 %.pre.i, 1
  br label %22

22:                                               ; preds = %strbuf_avail.exit.thread.i, %strbuf_avail.exit.i
  %.pre-phi.i = phi i64 [ %.pre7.i, %strbuf_avail.exit.thread.i ], [ %.neg.i, %strbuf_avail.exit.i ]
  %23 = phi i64 [ %.pre.i, %strbuf_avail.exit.thread.i ], [ %21, %strbuf_avail.exit.i ]
  %24 = getelementptr inbounds nuw i8, ptr %13, i64 16
  %25 = load ptr, ptr %24, align 8, !tbaa !16
  %26 = getelementptr inbounds nuw i8, ptr %13, i64 8
  store i64 %.pre-phi.i, ptr %26, align 8, !tbaa !15
  %27 = getelementptr inbounds nuw i8, ptr %25, i64 %23
  store i8 32, ptr %27, align 1, !tbaa !4
  %28 = load ptr, ptr %24, align 8, !tbaa !16
  %29 = load i64, ptr %26, align 8, !tbaa !15
  %30 = getelementptr inbounds nuw i8, ptr %28, i64 %29
  store i8 0, ptr %30, align 1, !tbaa !4
  %31 = load i8, ptr %7, align 1, !tbaa !4
  %.not5.i = icmp eq i8 %31, 0
  br i1 %.not5.i, label %maybe_append_string_va.exit, label %32

32:                                               ; preds = %22
  call void @llvm.lifetime.start.p0(i64 24, ptr nonnull %10) #7
  call void @llvm.va_copy.p0(ptr nonnull %10, ptr %8)
  call void @strbuf_vaddf(ptr noundef nonnull %13, ptr noundef nonnull %7, ptr noundef nonnull %10) #7
  call void @llvm.va_end.p0(ptr nonnull %10)
  call void @llvm.lifetime.end.p0(i64 24, ptr nonnull %10) #7
  br label %maybe_append_string_va.exit

maybe_append_string_va.exit:                      ; preds = %32, %22, %16, %15
  call fastcc void @perf_io_write_fl(ptr noundef %0, i32 noundef %1, ptr noundef nonnull @.str.58, ptr noundef %6, ptr noundef nonnull %11, ptr noundef nonnull %12, ptr noundef %4, ptr noundef %13)
  call void @strbuf_release(ptr noundef nonnull %13) #7
  call void @llvm.lifetime.end.p0(i64 24, ptr nonnull %13) #7
  ret void
}